target datalayout = "e-m:e-p270:32:32-p271:32:32-p272:64:64-i64:64-i128:128-f80:128-n8:16:32:64-S128"
target triple = "x86_64-pc-linux-gnu"

%struct.AVFilterContext = type { ptr, ptr, ptr, ptr, ptr, i32, ptr, ptr, i32, ptr, ptr, i32, i32, ptr, ptr, ptr, ptr, i32, ptr, i32, i32 }
%struct.VAAPIVPPContext = type { ptr, ptr, ptr, i32, i32, i32, ptr, ptr, %struct._VARectangle, i32, i32, i32, [10 x i32], i32, i32, ptr, ptr }
%struct._VARectangle = type { i16, i16, i16, i16 }

; Function Attrs: cold nounwind optsize uwtable
define internal i32 @transpose_vaapi_init(ptr noundef %0) #0 {
  %2 = alloca ptr, align 8
  %3 = alloca ptr, align 8
  store ptr %0, ptr %2, align 8, !tbaa !4
  call void @llvm.lifetime.start.p0(i64 8, ptr %3) #6
  %4 = load ptr, ptr %2, align 8, !tbaa !4
  %5 = getelementptr inbounds nuw %struct.AVFilterContext, ptr %4, i32 0, i32 9
  %6 = load ptr, ptr %5, align 8, !tbaa !9
  store ptr %6, ptr %3, align 8, !tbaa !22
  %7 = load ptr, ptr %2, align 8, !tbaa !4
  call void @ff_vaapi_vpp_ctx_init(ptr noundef %7)
  %8 = load ptr, ptr %3, align 8, !tbaa !22
  %9 = getelementptr inbounds nuw %struct.VAAPIVPPContext, ptr %8, i32 0, i32 16
  store ptr @ff_vaapi_vpp_pipeline_uninit, ptr %9, align 8, !tbaa !24
  %10 = load ptr, ptr %3, align 8, !tbaa !22
  %11 = getelementptr inbounds nuw %struct.VAAPIVPPContext, ptr %10, i32 0, i32 15
  store ptr @transpose_vaapi_build_filter_params, ptr %11, align 8, !tbaa !30
  %12 = load ptr, ptr %3, align 8, !tbaa !22
  %13 = getelementptr inbounds nuw %struct.VAAPIVPPContext, ptr %12, i32 0, i32 9
  store i32 -1, ptr %13, align 8, !tbaa !31
  call void @llvm.lifetime.end.p0(i64 8, ptr %3) #6
  ret i32 0
}